target datalayout = "e-m:e-p270:32:32-p271:32:32-p272:64:64-i64:64-i128:128-f80:128-n8:16:32:64-S128"
target triple = "x86_64-unknown-linux-gnu"

%"struct.node::AssertionInfo" = type { ptr, ptr, ptr }
%"class.v8::Local" = type { %"class.v8::LocalBase" }
%"class.v8::LocalBase" = type { %"class.v8::IndirectHandleBase" }
%"class.v8::IndirectHandleBase" = type { ptr }

@_ZZN4node11UDPWrapBase10FromObjectEN2v85LocalINS1_6ObjectEEEE4args = internal constant %"struct.node::AssertionInfo" { ptr @.str.6, ptr @.str.7, ptr @.str.8 }, align 8

; Function Attrs: mustprogress nounwind uwtable
define dso_local noundef ptr @_ZN4node11UDPWrapBase10FromObjectEN2v85LocalINS1_6ObjectEEE(ptr %obj.coerce) #4 align 2 {
entry:
  %slot.addr.i46 = alloca ptr, align 8
  %slot.addr.i = alloca ptr, align 8
  %this.addr.i.i41 = alloca ptr, align 8
  %this.addr.i42 = alloca ptr, align 8
  %this.addr.i.i = alloca ptr, align 8
  %this.addr.i39 = alloca ptr, align 8
  %heap_object_ptr.addr.i33 = alloca i64, align 8
  %offset.addr.i34 = alloca i32, align 4
  %addr.i35 = alloca i64, align 8
  %heap_object_ptr.addr.i27 = alloca i64, align 8
  %offset.addr.i28 = alloca i32, align 4
  %addr.i29 = alloca i64, align 8
  %heap_object_ptr.addr.i22 = alloca i64, align 8
  %offset.addr.i23 = alloca i32, align 4
  %addr.i = alloca i64, align 8
  %heap_object_ptr.addr.i19 = alloca i64, align 8
  %offset.addr.i20 = alloca i32, align 4
  %isolate.addr.i = alloca ptr, align 8
  %heap_object_ptr.addr.i = alloca i64, align 8
  %offset.addr.i = alloca i32, align 4
  %obj.addr.i17 = alloca i64, align 8
  %instance_type.addr.i = alloca i32, align 4
  %obj.addr.i = alloca i64, align 8
  %map.i = alloca i64, align 8
  %value.addr.i = alloca ptr, align 8
  %retval.i = alloca ptr, align 8
  %this.addr.i13 = alloca ptr, align 8
  %index.addr.i = alloca i32, align 4
  %obj.i = alloca i64, align 8
  %instance_type.i = alloca i32, align 4
  %offset.i = alloca i32, align 4
  %isolate.i = alloca ptr, align 8
  %value.i = alloca i64, align 8
  %this.addr.i10 = alloca ptr, align 8
  %this.addr.i = alloca ptr, align 8
  %obj = alloca %"class.v8::Local", align 8
  %coerce.dive = getelementptr inbounds %"class.v8::Local", ptr %obj, i32 0, i32 0
  %coerce.dive1 = getelementptr inbounds %"class.v8::LocalBase", ptr %coerce.dive, i32 0, i32 0
  %coerce.dive2 = getelementptr inbounds %"class.v8::IndirectHandleBase", ptr %coerce.dive1, i32 0, i32 0
  store ptr %obj.coerce, ptr %coerce.dive2, align 8
  br label %do.body

do.body:                                          ; preds = %entry
  store ptr %obj, ptr %this.addr.i10, align 8
  %this1.i11 = load ptr, ptr %this.addr.i10, align 8
  store ptr %this1.i11, ptr %this.addr.i39, align 8
  %this1.i40 = load ptr, ptr %this.addr.i39, align 8
  store ptr %this1.i40, ptr %this.addr.i.i, align 8
  %this1.i.i = load ptr, ptr %this.addr.i.i, align 8
  %0 = load ptr, ptr %this1.i.i, align 8
  store ptr %0, ptr %slot.addr.i46, align 8
  %1 = load ptr, ptr %slot.addr.i46, align 8
  %call3 = call noundef i32 @_ZNK2v86Object18InternalFieldCountEv(ptr noundef nonnull align 1 dereferenceable(1) %1)
  %cmp = icmp sgt i32 %call3, 2
  %lnot = xor i1 %cmp, true
  %lnot4 = xor i1 %lnot, true
  %lnot5 = xor i1 %lnot4, true
  br i1 %lnot5, label %if.then, label %if.end

if.then:                                          ; preds = %do.body
  br label %do.body6

do.body6:                                         ; preds = %if.then
  call void @_ZN4node6AssertERKNS_13AssertionInfoE(ptr noundef nonnull align 8 dereferenceable(24) @_ZZN4node11UDPWrapBase10FromObjectEN2v85LocalINS1_6ObjectEEEE4args)
  call void @abort() #13
  unreachable

do.end:                                           ; No predecessors!
  br label %if.end

if.end:                                           ; preds = %do.end, %do.body
  br label %do.end7

do.end7:                                          ; preds = %if.end
  store ptr %obj, ptr %this.addr.i, align 8
  %this1.i = load ptr, ptr %this.addr.i, align 8
  store ptr %this1.i, ptr %this.addr.i42, align 8
  %this1.i43 = load ptr, ptr %this.addr.i42, align 8
  store ptr %this1.i43, ptr %this.addr.i.i41, align 8
  %this1.i.i44 = load ptr, ptr %this.addr.i.i41, align 8
  %2 = load ptr, ptr %this1.i.i44, align 8
  store ptr %2, ptr %slot.addr.i, align 8
  %3 = load ptr, ptr %slot.addr.i, align 8
  store ptr %3, ptr %this.addr.i13, align 8
  store i32 2, ptr %index.addr.i, align 4
  %this1.i14 = load ptr, ptr %this.addr.i13, align 8
  store ptr %this1.i14, ptr %value.addr.i, align 8
  %4 = load ptr, ptr %value.addr.i, align 8
  %5 = load i64, ptr %4, align 8
  store i64 %5, ptr %obj.i, align 8
  %6 = load i64, ptr %obj.i, align 8
  store i64 %6, ptr %obj.addr.i, align 8
  %7 = load i64, ptr %obj.addr.i, align 8
  store i64 %7, ptr %heap_object_ptr.addr.i19, align 8
  store i32 0, ptr %offset.addr.i20, align 4
  %8 = load i64, ptr %heap_object_ptr.addr.i19, align 8
  %9 = load i32, ptr %offset.addr.i20, align 4
  store i64 %8, ptr %heap_object_ptr.addr.i27, align 8
  store i32 %9, ptr %offset.addr.i28, align 4
  %10 = load i64, ptr %heap_object_ptr.addr.i27, align 8
  %11 = load i32, ptr %offset.addr.i28, align 4
  %conv.i30 = sext i32 %11 to i64
  %add.i31 = add i64 %10, %conv.i30
  %sub.i32 = sub i64 %add.i31, 1
  store i64 %sub.i32, ptr %addr.i29, align 8
  %12 = load i64, ptr %addr.i29, align 8
  %13 = inttoptr i64 %12 to ptr
  %14 = load i64, ptr %13, align 8
  store i64 %14, ptr %map.i, align 8
  %15 = load i64, ptr %map.i, align 8
  store i64 %15, ptr %heap_object_ptr.addr.i22, align 8
  store i32 12, ptr %offset.addr.i23, align 4
  %16 = load i64, ptr %heap_object_ptr.addr.i22, align 8
  %17 = load i32, ptr %offset.addr.i23, align 4
  %conv.i24 = sext i32 %17 to i64
  %add.i25 = add i64 %16, %conv.i24
  %sub.i26 = sub i64 %add.i25, 1
  store i64 %sub.i26, ptr %addr.i, align 8
  %18 = load i64, ptr %addr.i, align 8
  %19 = inttoptr i64 %18 to ptr
  %20 = load i16, ptr %19, align 2
  %conv.i = zext i16 %20 to i32
  store i32 %conv.i, ptr %instance_type.i, align 4
  %21 = load i32, ptr %instance_type.i, align 4
  store i32 %21, ptr %instance_type.addr.i, align 4
  %22 = load i32, ptr %instance_type.addr.i, align 4
  %cmp.i = icmp eq i32 %22, 1040
  br i1 %cmp.i, label %_ZN2v88internal9Internals20CanHaveInternalFieldEi.exit, label %lor.rhs.i

lor.rhs.i:                                        ; preds = %do.end7
  %23 = load i32, ptr %instance_type.addr.i, align 4
  %sub.i = sub i32 %23, 1057
  %cmp1.i = icmp ule i32 %sub.i, 1001
  br label %_ZN2v88internal9Internals20CanHaveInternalFieldEi.exit

_ZN2v88internal9Internals20CanHaveInternalFieldEi.exit: ; preds = %lor.rhs.i, %do.end7
  %24 = phi i1 [ true, %do.end7 ], [ %cmp1.i, %lor.rhs.i ]
  br i1 %24, label %if.then.i, label %if.end.i

if.then.i:                                        ; preds = %_ZN2v88internal9Internals20CanHaveInternalFieldEi.exit
  %25 = load i32, ptr %index.addr.i, align 4
  %mul.i = mul nsw i32 8, %25
  %add.i = add nsw i32 24, %mul.i
  store i32 %add.i, ptr %offset.i, align 4
  %26 = load i64, ptr %obj.i, align 8
  store i64 %26, ptr %obj.addr.i17, align 8
  store ptr null, ptr %isolate.i, align 8
  %27 = load ptr, ptr %isolate.i, align 8
  %28 = load i64, ptr %obj.i, align 8
  %29 = load i32, ptr %offset.i, align 4
  store ptr %27, ptr %isolate.addr.i, align 8
  store i64 %28, ptr %heap_object_ptr.addr.i, align 8
  store i32 %29, ptr %offset.addr.i, align 4
  %30 = load i64, ptr %heap_object_ptr.addr.i, align 8
  %31 = load i32, ptr %offset.addr.i, align 4
  store i64 %30, ptr %heap_object_ptr.addr.i33, align 8
  store i32 %31, ptr %offset.addr.i34, align 4
  %32 = load i64, ptr %heap_object_ptr.addr.i33, align 8
  %33 = load i32, ptr %offset.addr.i34, align 4
  %conv.i36 = sext i32 %33 to i64
  %add.i37 = add i64 %32, %conv.i36
  %sub.i38 = sub i64 %add.i37, 1
  store i64 %sub.i38, ptr %addr.i35, align 8
  %34 = load i64, ptr %addr.i35, align 8
  %35 = inttoptr i64 %34 to ptr
  %36 = load i64, ptr %35, align 8
  store i64 %36, ptr %value.i, align 8
  %37 = load i64, ptr %value.i, align 8
  %38 = inttoptr i64 %37 to ptr
  store ptr %38, ptr %retval.i, align 8
  br label %_ZN2v86Object34GetAlignedPointerFromInternalFieldEi.exit

if.end.i:                                         ; preds = %_ZN2v88internal9Internals20CanHaveInternalFieldEi.exit
  %39 = load i32, ptr %index.addr.i, align 4
  %call7.i = call noundef ptr @_ZN2v86Object38SlowGetAlignedPointerFromInternalFieldEi(ptr noundef nonnull align 1 dereferenceable(1) %this1.i14, i32 noundef %39) #3
  store ptr %call7.i, ptr %retval.i, align 8
  br label %_ZN2v86Object34GetAlignedPointerFromInternalFieldEi.exit

_ZN2v86Object34GetAlignedPointerFromInternalFieldEi.exit: ; preds = %if.end.i, %if.then.i
  %40 = load ptr, ptr %retval.i, align 8
  ret ptr %40
}