; Function Attrs: mustprogress nounwind uwtable
define dso_local noundef ptr @_ZN4node11UDPWrapBase10FromObjectEN2v85LocalINS1_6ObjectEEE(ptr nonnull %obj.coerce) local_unnamed_addr #3 align 2 {
entry:
  %call3 = tail call noundef i32 @_ZNK2v86Object18InternalFieldCountEv(ptr noundef nonnull align 1 dereferenceable(1) %obj.coerce) #19
  %cmp = icmp slt i32 %call3, 3
  br i1 %cmp, label %do.body6, label %do.end7

do.body6:                                         ; preds = %entry
  tail call void @_ZN4node6AssertERKNS_13AssertionInfoE(ptr noundef nonnull align 8 dereferenceable(24) @_ZZN4node11UDPWrapBase10FromObjectEN2v85LocalINS1_6ObjectEEEE4args) #19
  tail call void @abort() #20
  unreachable

do.end7:                                          ; preds = %entry
  %0 = load i64, ptr %obj.coerce, align 8
  %sub.i32 = add i64 %0, -1
  %1 = inttoptr i64 %sub.i32 to ptr
  %2 = load i64, ptr %1, align 8
  %sub.i26 = add i64 %2, 11
  %3 = inttoptr i64 %sub.i26 to ptr
  %4 = load i16, ptr %3, align 2
  %conv.i = zext i16 %4 to i32
  %cmp.i = icmp eq i16 %4, 1040
  %sub.i = add nsw i32 %conv.i, -1057
  %cmp1.i = icmp ult i32 %sub.i, 1002
  %5 = select i1 %cmp.i, i1 true, i1 %cmp1.i
  br i1 %5, label %if.then.i, label %if.end.i

if.then.i:                                        ; preds = %do.end7
  %sub.i38 = add i64 %0, 39
  %6 = inttoptr i64 %sub.i38 to ptr
  %7 = load i64, ptr %6, align 8
  %8 = inttoptr i64 %7 to ptr
  br label %_ZN2v86Object34GetAlignedPointerFromInternalFieldEi.exit

if.end.i:                                         ; preds = %do.end7
  %call7.i = tail call noundef ptr @_ZN2v86Object38SlowGetAlignedPointerFromInternalFieldEi(ptr noundef nonnull align 1 dereferenceable(1) %obj.coerce, i32 noundef 2) #19
  br label %_ZN2v86Object34GetAlignedPointerFromInternalFieldEi.exit

_ZN2v86Object34GetAlignedPointerFromInternalFieldEi.exit: ; preds = %if.end.i, %if.then.i
  %retval.i.0 = phi ptr [ %8, %if.then.i ], [ %call7.i, %if.end.i ]
  ret ptr %retval.i.0
}